target datalayout = "e-m:e-p270:32:32-p271:32:32-p272:64:64-i64:64-i128:128-f80:128-n8:16:32:64-S128"
target triple = "x86_64-pc-linux-gnu"

; Function Attrs: nounwind uwtable
define void @Wlc_ComputeSum(ptr noundef %0, ptr noundef %1, i32 noundef %2, i32 noundef %3) #0 {
  %5 = alloca ptr, align 8
  %6 = alloca ptr, align 8
  %7 = alloca i32, align 4
  %8 = alloca i32, align 4
  %9 = alloca i8, align 1
  %10 = alloca i32, align 4
  %11 = alloca i8, align 1
  store ptr %0, ptr %5, align 8, !tbaa !3
  store ptr %1, ptr %6, align 8, !tbaa !3
  store i32 %2, ptr %7, align 4, !tbaa !8
  store i32 %3, ptr %8, align 4, !tbaa !8
  call void @llvm.lifetime.start.p0(i64 1, ptr %9) #10
  store i8 0, ptr %9, align 1, !tbaa !10
  call void @llvm.lifetime.start.p0(i64 4, ptr %10) #10
  store i32 0, ptr %10, align 4, !tbaa !8
  br label %12

12:                                               ; preds = %51, %4
  %13 = load i32, ptr %10, align 4, !tbaa !8
  %14 = load i32, ptr %7, align 4, !tbaa !8
  %15 = icmp slt i32 %13, %14
  br i1 %15, label %16, label %54

16:                                               ; preds = %12
  call void @llvm.lifetime.start.p0(i64 1, ptr %11) #10
  %17 = load ptr, ptr %5, align 8, !tbaa !3
  %18 = load i32, ptr %10, align 4, !tbaa !8
  %19 = sext i32 %18 to i64
  %20 = getelementptr inbounds i8, ptr %17, i64 %19
  %21 = load i8, ptr %20, align 1, !tbaa !10
  %22 = sext i8 %21 to i32
  %23 = load ptr, ptr %6, align 8, !tbaa !3
  %24 = load i32, ptr %10, align 4, !tbaa !8
  %25 = sext i32 %24 to i64
  %26 = getelementptr inbounds i8, ptr %23, i64 %25
  %27 = load i8, ptr %26, align 1, !tbaa !10
  %28 = sext i8 %27 to i32
  %29 = add nsw i32 %22, %28
  %30 = load i8, ptr %9, align 1, !tbaa !10
  %31 = sext i8 %30 to i32
  %32 = add nsw i32 %29, %31
  %33 = trunc i32 %32 to i8
  store i8 %33, ptr %11, align 1, !tbaa !10
  %34 = load i8, ptr %11, align 1, !tbaa !10
  %35 = sext i8 %34 to i32
  %36 = load i32, ptr %8, align 4, !tbaa !8
  %37 = icmp sge i32 %35, %36
  br i1 %37, label %38, label %44

38:                                               ; preds = %16
  %39 = load i32, ptr %8, align 4, !tbaa !8
  %40 = load i8, ptr %11, align 1, !tbaa !10
  %41 = sext i8 %40 to i32
  %42 = sub nsw i32 %41, %39
  %43 = trunc i32 %42 to i8
  store i8 %43, ptr %11, align 1, !tbaa !10
  store i8 1, ptr %9, align 1, !tbaa !10
  br label %45

44:                                               ; preds = %16
  store i8 0, ptr %9, align 1, !tbaa !10
  br label %45

45:                                               ; preds = %44, %38
  %46 = load i8, ptr %11, align 1, !tbaa !10
  %47 = load ptr, ptr %5, align 8, !tbaa !3
  %48 = load i32, ptr %10, align 4, !tbaa !8
  %49 = sext i32 %48 to i64
  %50 = getelementptr inbounds i8, ptr %47, i64 %49
  store i8 %46, ptr %50, align 1, !tbaa !10
  call void @llvm.lifetime.end.p0(i64 1, ptr %11) #10
  br label %51

51:                                               ; preds = %45
  %52 = load i32, ptr %10, align 4, !tbaa !8
  %53 = add nsw i32 %52, 1
  store i32 %53, ptr %10, align 4, !tbaa !8
  br label %12, !llvm.loop !11

54:                                               ; preds = %12
  call void @llvm.lifetime.end.p0(i64 4, ptr %10) #10
  call void @llvm.lifetime.end.p0(i64 1, ptr %9) #10
  ret void
}