; Function Attrs: nofree norecurse nosync nounwind memory(argmem: readwrite) uwtable
define void @Wlc_ComputeSum(ptr noundef captures(none) %0, ptr noundef readonly captures(none) %1, i32 noundef %2, i32 noundef %3) local_unnamed_addr #0 {
  %5 = icmp sgt i32 %2, 0
  br i1 %5, label %.lr.ph, label %._crit_edge

.lr.ph:                                           ; preds = %4
  %6 = trunc i32 %3 to i8
  %wide.trip.count = zext nneg i32 %2 to i64
  br label %7

7:                                                ; preds = %.lr.ph, %7
  %indvars.iv = phi i64 [ 0, %.lr.ph ], [ %indvars.iv.next, %7 ]
  %.01518 = phi i8 [ 0, %.lr.ph ], [ %.1, %7 ]
  %8 = getelementptr inbounds nuw i8, ptr %0, i64 %indvars.iv
  %9 = load i8, ptr %8, align 1, !tbaa !3
  %10 = getelementptr inbounds nuw i8, ptr %1, i64 %indvars.iv
  %11 = load i8, ptr %10, align 1, !tbaa !3
  %12 = add i8 %9, %.01518
  %13 = add i8 %12, %11
  %14 = sext i8 %13 to i32
  %.not = icmp sle i32 %3, %14
  %.1 = zext i1 %.not to i8
  %15 = select i1 %.not, i8 %6, i8 0
  %.0 = sub i8 %13, %15
  store i8 %.0, ptr %8, align 1, !tbaa !3
  %indvars.iv.next = add nuw nsw i64 %indvars.iv, 1
  %exitcond.not = icmp eq i64 %indvars.iv.next, %wide.trip.count
  br i1 %exitcond.not, label %._crit_edge, label %7, !llvm.loop !6

._crit_edge:                                      ; preds = %7, %4
  ret void
}